target datalayout = "e-m:e-p270:32:32-p271:32:32-p272:64:64-i64:64-i128:128-f80:128-n8:16:32:64-S128"
target triple = "x86_64-pc-linux-gnu"

%class.LIR_Assembler = type { ptr, ptr, ptr, ptr, ptr, ptr, i32, i32, %class.Label }
%class.Label = type <{ i32, [4 x i32], i32, ptr, i8, [7 x i8] }>
%class.AbstractAssembler = type { ptr, ptr, ptr }
%class.CodeSection = type { ptr, ptr, ptr, ptr, ptr, ptr, ptr, ptr, i8, i8, i32, i8, ptr }

@g_assert_poison = external global ptr, align 8
@.str.8 = private unnamed_addr constant [44 x i8] c"src/hotspot/cpu/x86/c1_LIRAssembler_x86.cpp\00", align 1

; Function Attrs: mustprogress nounwind uwtable
define linkonce_odr hidden noundef i32 @_ZNK11CodeSection4sizeEv(ptr noundef nonnull align 8 dereferenceable(88) %0) #1 comdat align 2 {
  %2 = alloca ptr, align 8
  store ptr %0, ptr %2, align 8
  %3 = load ptr, ptr %2, align 8
  %4 = getelementptr inbounds %class.CodeSection, ptr %3, i32 0, i32 2
  %5 = load ptr, ptr %4, align 8
  %6 = getelementptr inbounds %class.CodeSection, ptr %3, i32 0, i32 0
  %7 = load ptr, ptr %6, align 8
  %8 = ptrtoint ptr %5 to i64
  %9 = ptrtoint ptr %7 to i64
  %10 = sub i64 %8, %9
  %11 = trunc i64 %10 to i32
  ret i32 %11
}

; Function Attrs: mustprogress nounwind uwtable
define linkonce_odr hidden noundef ptr @_ZNK17AbstractAssembler12code_sectionEv(ptr noundef nonnull align 8 dereferenceable(24) %0) #1 comdat align 2 {
  %2 = alloca ptr, align 8
  store ptr %0, ptr %2, align 8
  %3 = load ptr, ptr %2, align 8
  %4 = getelementptr inbounds %class.AbstractAssembler, ptr %3, i32 0, i32 1
  %5 = load ptr, ptr %4, align 8
  ret ptr %5
}

; Function Attrs: mustprogress nounwind uwtable
define linkonce_odr hidden noundef i32 @_ZNK17AbstractAssembler6offsetEv(ptr noundef nonnull align 8 dereferenceable(24) %0) #1 comdat align 2 {
  %2 = alloca ptr, align 8
  store ptr %0, ptr %2, align 8
  %3 = load ptr, ptr %2, align 8
  %4 = call noundef ptr @_ZNK17AbstractAssembler12code_sectionEv(ptr noundef nonnull align 8 dereferenceable(24) %3)
  %5 = call noundef i32 @_ZNK11CodeSection4sizeEv(ptr noundef nonnull align 8 dereferenceable(88) %4)
  ret i32 %5
}

; Function Attrs: mustprogress nounwind uwtable
define hidden void @_ZN13LIR_Assembler10align_callE8LIR_Code(ptr noundef nonnull align 8 dereferenceable(96) %0, i32 noundef %1) #1 align 2 {
  %3 = alloca ptr, align 8
  %4 = alloca i32, align 4
  %5 = alloca i32, align 4
  store ptr %0, ptr %3, align 8
  store i32 %1, ptr %4, align 4
  %6 = load ptr, ptr %3, align 8
  %7 = getelementptr inbounds %class.LIR_Assembler, ptr %6, i32 0, i32 0
  %8 = load ptr, ptr %7, align 8
  %9 = call noundef i32 @_ZNK17AbstractAssembler6offsetEv(ptr noundef nonnull align 8 dereferenceable(24) %8)
  store i32 %9, ptr %5, align 4
  %10 = load i32, ptr %4, align 4
  switch i32 %10, label %17 [
    i32 76, label %11
    i32 77, label %11
    i32 79, label %11
    i32 78, label %14
  ]

11:                                               ; preds = %2, %2, %2
  %12 = load i32, ptr %5, align 4
  %13 = add nsw i32 %12, 1
  store i32 %13, ptr %5, align 4
  br label %21

14:                                               ; preds = %2
  %15 = load i32, ptr %5, align 4
  %16 = add nsw i32 %15, 11
  store i32 %16, ptr %5, align 4
  br label %21

17:                                               ; preds = %2
  br label %18

18:                                               ; preds = %17
  %19 = load ptr, ptr @g_assert_poison, align 8
  store i8 88, ptr %19, align 1
  call void @_Z28report_should_not_reach_herePKci(ptr noundef @.str.8, i32 noundef 2841) #6
  unreachable

20:                                               ; No predecessors!
  br label %21

21:                                               ; preds = %20, %14, %11
  %22 = getelementptr inbounds %class.LIR_Assembler, ptr %6, i32 0, i32 0
  %23 = load ptr, ptr %22, align 8
  %24 = load i32, ptr %5, align 4
  call void @_ZN14MacroAssembler5alignEjj(ptr noundef nonnull align 8 dereferenceable(40) %23, i32 noundef 8, i32 noundef %24)
  ret void
}