; Function Attrs: mustprogress nounwind uwtable
define hidden void @_ZN13LIR_Assembler10align_callE8LIR_Code(ptr nocapture noundef nonnull readonly align 8 dereferenceable(96) %0, i32 noundef %1) local_unnamed_addr #0 align 2 {
  %switch.tableidx = add i32 %1, -76
  %3 = icmp ult i32 %switch.tableidx, 4
  br i1 %3, label %switch.lookup, label %4

4:                                                ; preds = %2
  %5 = load ptr, ptr @g_assert_poison, align 8
  store i8 88, ptr %5, align 1
  tail call void @_Z28report_should_not_reach_herePKci(ptr noundef nonnull @.str.8, i32 noundef 2841) #16
  unreachable

switch.lookup:                                    ; preds = %2
  %6 = load ptr, ptr %0, align 8
  %7 = getelementptr inbounds i8, ptr %6, i64 8
  %8 = load ptr, ptr %7, align 8
  %9 = load ptr, ptr %8, align 8
  %10 = getelementptr inbounds i8, ptr %8, i64 16
  %11 = load ptr, ptr %10, align 8
  %12 = zext nneg i32 %switch.tableidx to i64
  %switch.gep = getelementptr inbounds [4 x i32], ptr @switch.table._ZN13LIR_Assembler10align_callE8LIR_Code, i64 0, i64 %12
  %switch.load = load i32, ptr %switch.gep, align 4
  %13 = ptrtoint ptr %11 to i64
  %14 = ptrtoint ptr %9 to i64
  %15 = sub i64 %13, %14
  %16 = trunc i64 %15 to i32
  %17 = add nsw i32 %switch.load, %16
  tail call void @_ZN14MacroAssembler5alignEjj(ptr noundef nonnull align 8 dereferenceable(40) %6, i32 noundef 8, i32 noundef %17) #15
  ret void
}